; Function Attrs: nounwind sspstrong uwtable
define internal fastcc zeroext i1 @bdrv_drain_poll_top_level(ptr noundef readonly captures(none) %bs, ptr noundef readnone %ignore_parent) unnamed_addr #0 {
entry:
  %call = tail call zeroext i1 @qemu_in_main_thread() #15
  br i1 %call, label %do.end, label %if.else

if.else:                                          ; preds = %entry
  tail call void @__assert_fail(ptr noundef nonnull @.str, ptr noundef nonnull @.str.1, i32 noundef 280, ptr noundef nonnull @__PRETTY_FUNCTION__.bdrv_drain_poll_top_level) #16
  unreachable

do.end:                                           ; preds = %entry
  tail call void @bdrv_graph_rdlock_main_loop() #15
  %call.i = tail call zeroext i1 @qemu_in_main_thread() #15
  br i1 %call.i, label %do.end.i, label %if.else.i

if.else.i:                                        ; preds = %do.end
  tail call void @__assert_fail(ptr noundef nonnull @.str, ptr noundef nonnull @.str.1, i32 noundef 264, ptr noundef nonnull @__PRETTY_FUNCTION__.bdrv_drain_poll) #16
  unreachable

do.end.i:                                         ; preds = %do.end
  tail call void @assert_bdrv_graph_readable() #15
  %parents.i.i = getelementptr inbounds nuw i8, ptr %bs, i64 16848
  %0 = load ptr, ptr %parents.i.i, align 8
  %tobool.not6.i.i = icmp eq ptr %0, null
  br i1 %tobool.not6.i.i, label %while.end.i, label %land.rhs.i.i

land.rhs.i.i:                                     ; preds = %do.end.i, %for.inc.i.i
  %busy.08.i.i = phi i1 [ %busy.1.i.i, %for.inc.i.i ], [ false, %do.end.i ]
  %c.07.i.i = phi ptr [ %1, %for.inc.i.i ], [ %0, %do.end.i ]
  %next_parent.i.i = getelementptr inbounds nuw i8, ptr %c.07.i.i, i64 80
  %1 = load ptr, ptr %next_parent.i.i, align 8
  %cmp.i.i = icmp eq ptr %c.07.i.i, %ignore_parent
  br i1 %cmp.i.i, label %for.inc.i.i, label %lor.lhs.false.i.i

lor.lhs.false.i.i:                                ; preds = %land.rhs.i.i
  %klass.i.i.i = getelementptr inbounds nuw i8, ptr %c.07.i.i, i64 16
  %2 = load ptr, ptr %klass.i.i.i, align 8
  %drained_poll.i.i.i = getelementptr inbounds nuw i8, ptr %2, i64 80
  %3 = load ptr, ptr %drained_poll.i.i.i, align 8
  %tobool.not.i.i.i = icmp eq ptr %3, null
  br i1 %tobool.not.i.i.i, label %bdrv_parent_drained_poll_single.exit.i.i, label %if.then.i.i.i

if.then.i.i.i:                                    ; preds = %lor.lhs.false.i.i
  %call.i.i.i = tail call zeroext i1 %3(ptr noundef nonnull %c.07.i.i) #15
  br label %bdrv_parent_drained_poll_single.exit.i.i

bdrv_parent_drained_poll_single.exit.i.i:         ; preds = %if.then.i.i.i, %lor.lhs.false.i.i
  %retval.0.i.i.i = phi i1 [ %call.i.i.i, %if.then.i.i.i ], [ false, %lor.lhs.false.i.i ]
  %4 = or i1 %busy.08.i.i, %retval.0.i.i.i
  br label %for.inc.i.i

for.inc.i.i:                                      ; preds = %bdrv_parent_drained_poll_single.exit.i.i, %land.rhs.i.i
  %busy.1.i.i = phi i1 [ %busy.08.i.i, %land.rhs.i.i ], [ %4, %bdrv_parent_drained_poll_single.exit.i.i ]
  %tobool.not.i.i = icmp eq ptr %1, null
  br i1 %tobool.not.i.i, label %bdrv_parent_drained_poll.exit.i, label %land.rhs.i.i, !llvm.loop !7

bdrv_parent_drained_poll.exit.i:                  ; preds = %for.inc.i.i
  br i1 %busy.1.i.i, label %glib_autoptr_cleanup_GraphLockableMainloop.exit, label %while.end.i

while.end.i:                                      ; preds = %bdrv_parent_drained_poll.exit.i, %do.end.i
  %in_flight.i = getelementptr inbounds nuw i8, ptr %bs, i64 16972
  %5 = load atomic i32, ptr %in_flight.i monotonic, align 4
  %tobool6.not.i = icmp ne i32 %5, 0
  br label %glib_autoptr_cleanup_GraphLockableMainloop.exit

glib_autoptr_cleanup_GraphLockableMainloop.exit:  ; preds = %bdrv_parent_drained_poll.exit.i, %while.end.i
  %retval.0.i = phi i1 [ true, %bdrv_parent_drained_poll.exit.i ], [ %tobool6.not.i, %while.end.i ]
  tail call void @bdrv_graph_rdunlock_main_loop() #15
  ret i1 %retval.0.i
}